; Function Attrs: nounwind uwtable
define noalias noundef ptr @Iso_ManTest888(ptr noundef %0, i32 noundef %1) local_unnamed_addr #0 {
  %3 = tail call ptr @Abc_NtkFromAigPhase(ptr noundef %0) #24
  tail call void @Abc_NtkPermute(ptr noundef %3, i32 noundef 1, i32 noundef 0, i32 noundef 1, ptr noundef null) #24
  %4 = tail call ptr @Abc_NtkToDar(ptr noundef %3, i32 noundef 0, i32 noundef 1) #24
  tail call void @Abc_NtkDelete(ptr noundef %3) #24
  %5 = tail call ptr @Iso_ManFindMapping(ptr noundef %0, ptr noundef %4, ptr noundef null, ptr noundef null, i32 noundef %1)
  tail call void @Aig_ManStop(ptr noundef %4) #24
  %.not = icmp eq ptr %5, null
  br i1 %.not, label %18, label %6

6:                                                ; preds = %2
  %puts8 = tail call i32 @puts(ptr nonnull dereferenceable(1) @str.6)
  %.not9 = icmp eq i32 %1, 0
  br i1 %.not9, label %19, label %7

7:                                                ; preds = %6
  %8 = getelementptr i8, ptr %5, i64 4
  %.val6.i = load i32, ptr %8, align 4, !tbaa !7
  %9 = tail call i32 (ptr, ...) @printf(ptr noundef nonnull dereferenceable(1) @.str.24, i32 noundef %.val6.i)
  %.val8.i = load i32, ptr %8, align 4, !tbaa !7
  %10 = icmp sgt i32 %.val8.i, 0
  br i1 %10, label %.lr.ph.i, label %Vec_IntPrint.exit

.lr.ph.i:                                         ; preds = %7
  %11 = getelementptr i8, ptr %5, i64 8
  br label %12

12:                                               ; preds = %12, %.lr.ph.i
  %indvars.iv.i = phi i64 [ 0, %.lr.ph.i ], [ %indvars.iv.next.i, %12 ]
  %.val7.i = load ptr, ptr %11, align 8, !tbaa !12
  %13 = getelementptr inbounds nuw i32, ptr %.val7.i, i64 %indvars.iv.i
  %14 = load i32, ptr %13, align 4, !tbaa !3
  %15 = tail call i32 (ptr, ...) @printf(ptr noundef nonnull dereferenceable(1) @.str.22, i32 noundef %14)
  %indvars.iv.next.i = add nuw nsw i64 %indvars.iv.i, 1
  %.val.i = load i32, ptr %8, align 4, !tbaa !7
  %16 = sext i32 %.val.i to i64
  %17 = icmp slt i64 %indvars.iv.next.i, %16
  br i1 %17, label %12, label %Vec_IntPrint.exit, !llvm.loop !84

Vec_IntPrint.exit:                                ; preds = %12, %7
  %puts.i = tail call i32 @puts(ptr nonnull dereferenceable(1) @str.7)
  br label %19

18:                                               ; preds = %2
  %puts = tail call i32 @puts(ptr nonnull dereferenceable(1) @str.5)
  br label %Vec_IntFreeP.exit

19:                                               ; preds = %6, %Vec_IntPrint.exit
  %20 = getelementptr inbounds nuw i8, ptr %5, i64 8
  %21 = load ptr, ptr %20, align 8, !tbaa !12
  %.not.i = icmp eq ptr %21, null
  br i1 %.not.i, label %22, label %.thread.i

.thread.i:                                        ; preds = %19
  tail call void @free(ptr noundef nonnull %21) #24
  br label %22

22:                                               ; preds = %.thread.i, %19
  tail call void @free(ptr noundef nonnull %5) #24
  br label %Vec_IntFreeP.exit

Vec_IntFreeP.exit:                                ; preds = %18, %22
  ret ptr null
}